((ccopy_reg
_reconstructor
p0
(cmodel.field
ConstField
p1
c__builtin__
object
p2
Ntp3
Rp4
(dp5
S'meta'
p6
(dp7
S'label'
p8
S'root'
p9
ssS'cls'
p10
(g0
(g1
g2
Ntp11
Rp12
(dp13
g6
(dp14
g8
Vworld class
p15
ssS'value'
p16
(dp17
(g0
(cmodel.field
PublicField
p18
g2
Ntp19
Rp20
(dp21
g6
(dp22
g8
S'links'
p23
ssg10
Nsbtp24
(dp25
(g0
(cmodel.field
Field
p26
g2
Ntp27
Rp28
(dp29
g6
(dp30
g8
S'B'
p31
ssg10
(g0
(g1
g2
Ntp32
Rp33
(dp34
g6
(dp35
g8
S'+'
p36
ssg16
(dp37
(g0
(g18
g2
Ntp38
Rp39
(dp40
g6
(dp41
g8
S'fields'
p42
ssg10
Nsbtp43
(lp44
g0
(g18
g2
Ntp45
Rp46
(dp47
g6
(dp48
g8
S'a'
p49
ssg10
(g0
(g1
g2
Ntp50
Rp51
(dp52
g6
(dp53
g8
S'number'
p54
ssg16
(dp55
(g39
tp56
(lp57
s(g0
(g18
g2
Ntp58
Rp59
(dp60
g6
(dp61
g8
S'format'
p62
ssg10
Nsbtp63
(dp64
ssg10
(g0
(g1
g2
Ntp65
Rp66
(dp67
g6
(dp68
g8
S'metaclass of magic'
p69
ssg16
(dp70
(g39
tp71
(lp72
g39
ag0
(g18
g2
Ntp73
Rp74
(dp75
g6
(dp76
g8
S'computer'
p77
ssg10
Nsbag59
assg10
(g0
(g1
g2
Ntp78
Rp79
(dp80
g6
(dp81
g8
S'base metaclass'
p82
ssg16
(dp83
(g39
tp84
(lp85
g39
ag59
assg10
(g79
tp86
sb00g86
sbtp87
sbtp88
sbag0
(g18
g2
Ntp89
Rp90
(dp91
g6
(dp92
g8
S'b'
p93
ssg10
g88
sbag0
(g18
g2
Ntp94
Rp95
(dp96
g6
(dp97
g8
S'='
p98
ssg10
g88
sbas(g59
tp99
(lp100
g46
a(lp101
g36
aag90
a(lp102
g98
aag95
as(g74
tp103
g0
(cmodel.magic
MagicComputer
p104
g2
Ntp105
Rp106
(dp107
S'pycls'
p108
cbuiltins
_add
p109
sbssg10
g87
sbtp110
sbg46
tp111
(g0
(g1
g2
Ntp112
Rp113
(dp114
g6
(dp115
g8
S'A'
p116
ssg16
I5
sg10
g88
sbtp117
s(g28
g90
tp118
(g113
tp119
ss(g39
tp120
(lp121
g113
ag28
ag0
(g26
g2
Ntp122
Rp123
(dp124
g6
(dp125
g8
S'C'
p126
ssg10
g88
sbassg10
(g0
(g1
g2
Ntp127
Rp128
(dp129
g6
(dp130
g8
S'nf metaclass'
p131
ssg16
(dp132
(g39
tp133
(lp134
g39
ag20
ag74
ag59
assg10
g86
sbtp135
sbtp136
sbtp137
(dp138
S'all_fields'
p139
g134
sS'PublicField'
p140
g18
sg23
g20
sg62
g59
sg42
g39
sg77
g74
s(dp141
S'division'
p142
(i__future__
_Feature
p143
(dp144
S'mandatory'
p145
(I3
I0
I0
S'alpha'
p146
I0
tp147
sS'optional'
p148
(I2
I2
I0
g146
I2
tp149
sS'compiler_flag'
p150
I8192
sbsg140
g18
sS'make_sig'
p151
cbuiltins
make_sig
p152
sS'magic_class'
p153
cmodel.magic
magic_class
p154
sS'add'
p155
g110
sS'ConstField'
p156
g1
sS'multiply'
p157
(g0
(g1
g2
Ntp158
Rp159
(dp160
g6
(dp161
g8
S'*'
p162
ssg16
(dp163
(g39
tp164
(lp165
g0
(g18
g2
Ntp166
Rp167
(dp168
g6
(dp169
g8
g49
ssg10
g88
sbag0
(g18
g2
Ntp170
Rp171
(dp172
g6
(dp173
g8
g93
ssg10
g88
sbag0
(g18
g2
Ntp174
Rp175
(dp176
g6
(dp177
g8
g98
ssg10
g88
sbas(g59
tp178
(dp179
s(g74
tp180
g0
(g104
g2
Ntp181
Rp182
(dp183
g108
cbuiltins
_multiply
p184
sbssg10
g87
sbtp185
sS'nfnumber'
p186
g88
stp187
.